; Function Attrs: nounwind uwtable
define hidden void @SDL_UpdateSensor(ptr noundef %0) local_unnamed_addr #1 {
  %2 = tail call i32 @SDL_AddAtomicInt_REAL(ptr noundef nonnull @SDL_sensor_lock_pending, i32 noundef 1) #9
  %3 = load ptr, ptr @SDL_sensor_lock, align 8
  tail call void @SDL_LockMutex_REAL(ptr noundef %3) #9
  %4 = tail call i32 @SDL_AddAtomicInt_REAL(ptr noundef nonnull @SDL_sensor_lock_pending, i32 noundef -1) #9
  %5 = load i32, ptr @SDL_sensors_locked, align 4
  %6 = add nsw i32 %5, 1
  store i32 %6, ptr @SDL_sensors_locked, align 4
  %7 = tail call zeroext i1 @SDL_ObjectValid(ptr noundef %0, i32 noundef 7) #9
  br i1 %7, label %20, label %8

8:                                                ; preds = %1
  %9 = tail call zeroext i1 (ptr, ...) @SDL_SetError_REAL(ptr noundef nonnull @.str, ptr noundef nonnull @.str.1) #9
  %10 = load i32, ptr @SDL_sensors_locked, align 4
  %11 = add nsw i32 %10, -1
  store i32 %11, ptr @SDL_sensors_locked, align 4
  %.b4.i = load i1, ptr @SDL_sensors_initialized, align 1
  %12 = icmp ne i32 %11, 0
  %or.cond.i = select i1 %.b4.i, i1 true, i1 %12
  br i1 %or.cond.i, label %.critedge.i, label %13

13:                                               ; preds = %8
  %14 = tail call i32 @SDL_GetAtomicInt_REAL(ptr noundef nonnull @SDL_sensor_lock_pending) #9
  %15 = icmp eq i32 %14, 0
  br i1 %15, label %16, label %.critedge.i

16:                                               ; preds = %13
  %17 = load ptr, ptr @SDL_sensor_lock, align 8
  tail call void @SDL_LockMutex_REAL(ptr noundef %17) #9
  %18 = load ptr, ptr @SDL_sensor_lock, align 8
  tail call void @SDL_UnlockMutex_REAL(ptr noundef %18) #9
  store ptr null, ptr @SDL_sensor_lock, align 8
  tail call void @SDL_UnlockMutex_REAL(ptr noundef %17) #9
  tail call void @SDL_DestroyMutex_REAL(ptr noundef %17) #9
  br label %SDL_UnlockSensors.exit

.critedge.i:                                      ; preds = %13, %8
  %19 = load ptr, ptr @SDL_sensor_lock, align 8
  tail call void @SDL_UnlockMutex_REAL(ptr noundef %19) #9
  br label %SDL_UnlockSensors.exit

20:                                               ; preds = %1
  %21 = getelementptr inbounds nuw i8, ptr %0, i64 88
  %22 = load ptr, ptr %21, align 8
  %23 = getelementptr inbounds nuw i8, ptr %22, i64 64
  %24 = load ptr, ptr %23, align 8
  tail call void %24(ptr noundef %0) #9
  %25 = load i32, ptr @SDL_sensors_locked, align 4
  %26 = add nsw i32 %25, -1
  store i32 %26, ptr @SDL_sensors_locked, align 4
  %.b4.i3 = load i1, ptr @SDL_sensors_initialized, align 1
  %27 = icmp ne i32 %26, 0
  %or.cond.i4 = select i1 %.b4.i3, i1 true, i1 %27
  br i1 %or.cond.i4, label %.critedge.i5, label %28

28:                                               ; preds = %20
  %29 = tail call i32 @SDL_GetAtomicInt_REAL(ptr noundef nonnull @SDL_sensor_lock_pending) #9
  %30 = icmp eq i32 %29, 0
  br i1 %30, label %31, label %.critedge.i5

31:                                               ; preds = %28
  %32 = load ptr, ptr @SDL_sensor_lock, align 8
  tail call void @SDL_LockMutex_REAL(ptr noundef %32) #9
  %33 = load ptr, ptr @SDL_sensor_lock, align 8
  tail call void @SDL_UnlockMutex_REAL(ptr noundef %33) #9
  store ptr null, ptr @SDL_sensor_lock, align 8
  tail call void @SDL_UnlockMutex_REAL(ptr noundef %32) #9
  tail call void @SDL_DestroyMutex_REAL(ptr noundef %32) #9
  br label %SDL_UnlockSensors.exit

.critedge.i5:                                     ; preds = %28, %20
  %34 = load ptr, ptr @SDL_sensor_lock, align 8
  tail call void @SDL_UnlockMutex_REAL(ptr noundef %34) #9
  br label %SDL_UnlockSensors.exit

SDL_UnlockSensors.exit:                           ; preds = %.critedge.i5, %31, %.critedge.i, %16
  ret void
}